target datalayout = "e-m:e-p270:32:32-p271:32:32-p272:64:64-i64:64-i128:128-f80:128-n8:16:32:64-S128"
target triple = "x86_64-pc-linux-gnu"

; Function Attrs: nounwind uwtable
define hidden i32 @timelib_strcasecmp(ptr noundef %0, ptr noundef %1) #0 {
  %3 = alloca i32, align 4
  %4 = alloca ptr, align 8
  %5 = alloca ptr, align 8
  %6 = alloca i64, align 8
  %7 = alloca i64, align 8
  %8 = alloca i64, align 8
  %9 = alloca i32, align 4
  %10 = alloca i32, align 4
  store ptr %0, ptr %4, align 8
  store ptr %1, ptr %5, align 8
  %11 = load ptr, ptr %4, align 8
  %12 = call i64 @strlen(ptr noundef %11) #7
  store i64 %12, ptr %7, align 8
  %13 = load ptr, ptr %5, align 8
  %14 = call i64 @strlen(ptr noundef %13) #7
  store i64 %14, ptr %8, align 8
  %15 = load ptr, ptr %4, align 8
  %16 = load ptr, ptr %5, align 8
  %17 = icmp eq ptr %15, %16
  br i1 %17, label %18, label %19

18:                                               ; preds = %2
  store i32 0, ptr %3, align 4
  br label %61

19:                                               ; preds = %2
  %20 = load i64, ptr %7, align 8
  %21 = load i64, ptr %8, align 8
  %22 = icmp ult i64 %20, %21
  br i1 %22, label %23, label %25

23:                                               ; preds = %19
  %24 = load i64, ptr %7, align 8
  br label %27

25:                                               ; preds = %19
  %26 = load i64, ptr %8, align 8
  br label %27

27:                                               ; preds = %25, %23
  %28 = phi i64 [ %24, %23 ], [ %26, %25 ]
  store i64 %28, ptr %6, align 8
  br label %29

29:                                               ; preds = %55, %27
  %30 = load i64, ptr %6, align 8
  %31 = add i64 %30, -1
  store i64 %31, ptr %6, align 8
  %32 = icmp ne i64 %30, 0
  br i1 %32, label %33, label %56

33:                                               ; preds = %29
  %34 = load ptr, ptr %4, align 8
  %35 = getelementptr inbounds i8, ptr %34, i32 1
  store ptr %35, ptr %4, align 8
  %36 = load i8, ptr %34, align 1
  %37 = zext i8 %36 to i64
  %38 = getelementptr inbounds [256 x i8], ptr @timelib_tolower_map, i64 0, i64 %37
  %39 = load i8, ptr %38, align 1
  %40 = zext i8 %39 to i32
  store i32 %40, ptr %9, align 4
  %41 = load ptr, ptr %5, align 8
  %42 = getelementptr inbounds i8, ptr %41, i32 1
  store ptr %42, ptr %5, align 8
  %43 = load i8, ptr %41, align 1
  %44 = zext i8 %43 to i64
  %45 = getelementptr inbounds [256 x i8], ptr @timelib_tolower_map, i64 0, i64 %44
  %46 = load i8, ptr %45, align 1
  %47 = zext i8 %46 to i32
  store i32 %47, ptr %10, align 4
  %48 = load i32, ptr %9, align 4
  %49 = load i32, ptr %10, align 4
  %50 = icmp ne i32 %48, %49
  br i1 %50, label %51, label %55

51:                                               ; preds = %33
  %52 = load i32, ptr %9, align 4
  %53 = load i32, ptr %10, align 4
  %54 = sub nsw i32 %52, %53
  store i32 %54, ptr %3, align 4
  br label %61

55:                                               ; preds = %33
  br label %29

56:                                               ; preds = %29
  %57 = load i64, ptr %7, align 8
  %58 = load i64, ptr %8, align 8
  %59 = sub i64 %57, %58
  %60 = trunc i64 %59 to i32
  store i32 %60, ptr %3, align 4
  br label %61

61:                                               ; preds = %56, %51, %18
  %62 = load i32, ptr %3, align 4
  ret i32 %62
}