; Function Attrs: nofree nounwind memory(read, inaccessiblemem: none) uwtable
define hidden i32 @timelib_strcasecmp(ptr noundef readonly %0, ptr noundef readonly %1) local_unnamed_addr #12 {
  %3 = tail call i64 @strlen(ptr noundef nonnull dereferenceable(1) %0) #19
  %4 = tail call i64 @strlen(ptr noundef nonnull dereferenceable(1) %1) #19
  %5 = icmp eq ptr %0, %1
  br i1 %5, label %28, label %6

6:                                                ; preds = %2
  %7 = tail call i64 @llvm.umin.i64(i64 %3, i64 %4)
  br label %8

8:                                                ; preds = %9, %6
  %.019 = phi i64 [ %7, %6 ], [ %10, %9 ]
  %.018 = phi ptr [ %1, %6 ], [ %16, %9 ]
  %.017 = phi ptr [ %0, %6 ], [ %11, %9 ]
  %.not = icmp eq i64 %.019, 0
  br i1 %.not, label %25, label %9

9:                                                ; preds = %8
  %10 = add i64 %.019, -1
  %11 = getelementptr inbounds i8, ptr %.017, i64 1
  %12 = load i8, ptr %.017, align 1
  %13 = zext i8 %12 to i64
  %14 = getelementptr inbounds [256 x i8], ptr @timelib_tolower_map, i64 0, i64 %13
  %15 = load i8, ptr %14, align 1
  %16 = getelementptr inbounds i8, ptr %.018, i64 1
  %17 = load i8, ptr %.018, align 1
  %18 = zext i8 %17 to i64
  %19 = getelementptr inbounds [256 x i8], ptr @timelib_tolower_map, i64 0, i64 %18
  %20 = load i8, ptr %19, align 1
  %.not24 = icmp eq i8 %15, %20
  br i1 %.not24, label %8, label %21

21:                                               ; preds = %9
  %22 = zext i8 %20 to i32
  %23 = zext i8 %15 to i32
  %24 = sub nsw i32 %23, %22
  br label %28

25:                                               ; preds = %8
  %26 = sub i64 %3, %4
  %27 = trunc i64 %26 to i32
  br label %28

28:                                               ; preds = %2, %25, %21
  %.0 = phi i32 [ %24, %21 ], [ %27, %25 ], [ 0, %2 ]
  ret i32 %.0
}